target datalayout = "e-m:e-p270:32:32-p271:32:32-p272:64:64-i64:64-i128:128-f80:128-n8:16:32:64-S128"
target triple = "x86_64-pc-linux-gnu"

; Function Attrs: nounwind uwtable
define void @ff_weighted_vector_sumf(ptr noundef %0, ptr noundef %1, ptr noundef %2, float noundef %3, float noundef %4, i32 noundef %5) #0 {
  %7 = alloca ptr, align 8
  %8 = alloca ptr, align 8
  %9 = alloca ptr, align 8
  %10 = alloca float, align 4
  %11 = alloca float, align 4
  %12 = alloca i32, align 4
  %13 = alloca i32, align 4
  store ptr %0, ptr %7, align 8, !tbaa !27
  store ptr %1, ptr %8, align 8, !tbaa !27
  store ptr %2, ptr %9, align 8, !tbaa !27
  store float %3, ptr %10, align 4, !tbaa !24
  store float %4, ptr %11, align 4, !tbaa !24
  store i32 %5, ptr %12, align 4, !tbaa !11
  call void @llvm.lifetime.start.p0(i64 4, ptr %13) #6
  store i32 0, ptr %13, align 4, !tbaa !11
  br label %14

14:                                               ; preds = %37, %6
  %15 = load i32, ptr %13, align 4, !tbaa !11
  %16 = load i32, ptr %12, align 4, !tbaa !11
  %17 = icmp slt i32 %15, %16
  br i1 %17, label %18, label %40

18:                                               ; preds = %14
  %19 = load float, ptr %10, align 4, !tbaa !24
  %20 = load ptr, ptr %8, align 8, !tbaa !27
  %21 = load i32, ptr %13, align 4, !tbaa !11
  %22 = sext i32 %21 to i64
  %23 = getelementptr inbounds float, ptr %20, i64 %22
  %24 = load float, ptr %23, align 4, !tbaa !24
  %25 = load float, ptr %11, align 4, !tbaa !24
  %26 = load ptr, ptr %9, align 8, !tbaa !27
  %27 = load i32, ptr %13, align 4, !tbaa !11
  %28 = sext i32 %27 to i64
  %29 = getelementptr inbounds float, ptr %26, i64 %28
  %30 = load float, ptr %29, align 4, !tbaa !24
  %31 = fmul nsz float %25, %30
  %32 = call nsz float @llvm.fmuladd.f32(float %19, float %24, float %31)
  %33 = load ptr, ptr %7, align 8, !tbaa !27
  %34 = load i32, ptr %13, align 4, !tbaa !11
  %35 = sext i32 %34 to i64
  %36 = getelementptr inbounds float, ptr %33, i64 %35
  store float %32, ptr %36, align 4, !tbaa !24
  br label %37

37:                                               ; preds = %18
  %38 = load i32, ptr %13, align 4, !tbaa !11
  %39 = add nsw i32 %38, 1
  store i32 %39, ptr %13, align 4, !tbaa !11
  br label %14, !llvm.loop !29

40:                                               ; preds = %14
  call void @llvm.lifetime.end.p0(i64 4, ptr %13) #6
  ret void
}