; Function Attrs: nofree norecurse nosync nounwind memory(argmem: readwrite) uwtable
define void @ff_weighted_vector_sumf(ptr noundef writeonly captures(none) %0, ptr noundef readonly captures(none) %1, ptr noundef readonly captures(none) %2, float noundef %3, float noundef %4, i32 noundef %5) #0 {
  %7 = icmp sgt i32 %5, 0
  br i1 %7, label %.lr.ph.preheader, label %._crit_edge

.lr.ph.preheader:                                 ; preds = %6
  %wide.trip.count = zext nneg i32 %5 to i64
  br label %.lr.ph

.lr.ph:                                           ; preds = %.lr.ph.preheader, %.lr.ph
  %indvars.iv = phi i64 [ 0, %.lr.ph.preheader ], [ %indvars.iv.next, %.lr.ph ]
  %8 = getelementptr inbounds nuw float, ptr %1, i64 %indvars.iv
  %9 = load float, ptr %8, align 4, !tbaa !17
  %10 = getelementptr inbounds nuw float, ptr %2, i64 %indvars.iv
  %11 = load float, ptr %10, align 4, !tbaa !17
  %12 = fmul nsz float %4, %11
  %13 = tail call nsz float @llvm.fmuladd.f32(float %3, float %9, float %12)
  %14 = getelementptr inbounds nuw float, ptr %0, i64 %indvars.iv
  store float %13, ptr %14, align 4, !tbaa !17
  %indvars.iv.next = add nuw nsw i64 %indvars.iv, 1
  %exitcond.not = icmp eq i64 %indvars.iv.next, %wide.trip.count
  br i1 %exitcond.not, label %._crit_edge, label %.lr.ph, !llvm.loop !20

._crit_edge:                                      ; preds = %.lr.ph, %6
  ret void
}